	.cpu cortex-m0
	.fpu softvfp
	.eabi_attribute 20, 1
	.eabi_attribute 21, 1
	.eabi_attribute 23, 3
	.eabi_attribute 24, 1
	.eabi_attribute 25, 1
	.eabi_attribute 26, 1
	.eabi_attribute 30, 6
	.eabi_attribute 34, 0
	.eabi_attribute 18, 4
	.code	16
	.file	"libs.c"
	.text
.Ltext0:
	.cfi_sections	.debug_frame
	.align	2
	.global	libs_init_switches
	.code	16
	.thumb_func
	.type	libs_init_switches, %function
libs_init_switches:
.LFB0:
	.file 1 "libs.c"
	.loc 1 7 0
	.cfi_startproc
	push	{r7, lr}
	.cfi_def_cfa_offset 8
	.cfi_offset 7, -8
	.cfi_offset 14, -4
	add	r7, sp, #0
	.cfi_def_cfa_register 7
	.loc 1 9 0
	ldr	r3, .L2
	ldr	r2, .L2
	ldr	r2, [r2, #20]
	mov	r1, #128
	lsl	r1, r1, #10
	orr	r2, r1
	str	r2, [r3, #20]
	.loc 1 10 0
	mov	r3, #144
	lsl	r3, r3, #23
	mov	r2, #144
	lsl	r2, r2, #23
	ldr	r2, [r2]
	mov	r1, #255
	bic	r2, r1
	str	r2, [r3]
	.loc 1 11 0
	mov	r3, #144
	lsl	r3, r3, #23
	mov	r2, #144
	lsl	r2, r2, #23
	ldr	r2, [r2, #12]
	mov	r1, #85
	orr	r2, r1
	str	r2, [r3, #12]
	.loc 1 12 0
	mov	sp, r7
	@ sp needed
	pop	{r7, pc}
.L3:
	.align	2
.L2:
	.word	1073876992
	.cfi_endproc
.LFE0:
	.size	libs_init_switches, .-libs_init_switches
	.align	2
	.global	libs_read_switches
	.code	16
	.thumb_func
	.type	libs_read_switches, %function
libs_read_switches:
.LFB1:
	.loc 1 14 0
	.cfi_startproc
	push	{r7, lr}
	.cfi_def_cfa_offset 8
	.cfi_offset 7, -8
	.cfi_offset 14, -4
	sub	sp, sp, #8
	.cfi_def_cfa_offset 16
	add	r7, sp, #0
	.cfi_def_cfa_register 7
	.loc 1 16 0
	mov	r3, #144
	lsl	r3, r3, #23
	ldrh	r3, [r3, #16]
	uxth	r2, r3
	add	r3, r7, #7
	strb	r2, [r3]
	.loc 1 17 0
	add	r3, r7, #7
	ldrb	r3, [r3]
	.loc 1 18 0
	mov	r0, r3
	mov	sp, r7
	add	sp, sp, #8
	@ sp needed
	pop	{r7, pc}
	.cfi_endproc
.LFE1:
	.size	libs_read_switches, .-libs_read_switches
	.align	2
	.global	libs_read_switches_bool
	.code	16
	.thumb_func
	.type	libs_read_switches_bool, %function
libs_read_switches_bool:
.LFB2:
	.loc 1 20 0
	.cfi_startproc
	push	{r4, r7, lr}
	.cfi_def_cfa_offset 12
	.cfi_offset 4, -12
	.cfi_offset 7, -8
	.cfi_offset 14, -4
	sub	sp, sp, #20
	.cfi_def_cfa_offset 32
	add	r7, sp, #0
	.cfi_def_cfa_register 7
	mov	r2, r0
	add	r3, r7, #7
	strb	r2, [r3]
	.loc 1 22 0
	mov	r4, r7
	add	r4, r4, #15
	bl	libs_read_switches
	mov	r3, r0
	strb	r3, [r4]
	.loc 1 23 0
	mov	r3, r7
	add	r3, r3, #15
	mov	r2, r7
	add	r2, r2, #15
	ldrb	r1, [r2]
	mov	r2, #15
	and	r2, r1
	strb	r2, [r3]
	.loc 1 25 0
	add	r3, r7, #7
	ldrb	r3, [r3]
	cmp	r3, #0
	bne	.L7
	.loc 1 27 0
	mov	r3, r7
	add	r3, r3, #15
	ldrb	r3, [r3]
	sub	r3, r3, #14
	neg	r2, r3
	adc	r3, r3, r2
	uxtb	r3, r3
	b	.L8
.L7:
	.loc 1 30 0
	add	r3, r7, #7
	ldrb	r3, [r3]
	cmp	r3, #1
	bne	.L9
	.loc 1 32 0
	mov	r3, r7
	add	r3, r3, #15
	ldrb	r3, [r3]
	sub	r3, r3, #13
	neg	r2, r3
	adc	r3, r3, r2
	uxtb	r3, r3
	b	.L8
.L9:
	.loc 1 35 0
	add	r3, r7, #7
	ldrb	r3, [r3]
	cmp	r3, #2
	bne	.L10
	.loc 1 37 0
	mov	r3, r7
	add	r3, r3, #15
	ldrb	r3, [r3]
	sub	r3, r3, #11
	neg	r2, r3
	adc	r3, r3, r2
	uxtb	r3, r3
	b	.L8
.L10:
	.loc 1 40 0
	add	r3, r7, #7
	ldrb	r3, [r3]
	cmp	r3, #3
	bne	.L11
	.loc 1 42 0
	mov	r3, r7
	add	r3, r3, #15
	ldrb	r3, [r3]
	sub	r3, r3, #7
	neg	r2, r3
	adc	r3, r3, r2
	uxtb	r3, r3
	b	.L8
.L11:
	.loc 1 45 0
	mov	r3, #0
.L8:
	.loc 1 46 0
	mov	r0, r3
	mov	sp, r7
	add	sp, sp, #20
	@ sp needed
	pop	{r4, r7, pc}
	.cfi_endproc
.LFE2:
	.size	libs_read_switches_bool, .-libs_read_switches_bool
	.align	2
	.global	libs_init_leds
	.code	16
	.thumb_func
	.type	libs_init_leds, %function
libs_init_leds:
.LFB3:
	.loc 1 49 0
	.cfi_startproc
	push	{r7, lr}
	.cfi_def_cfa_offset 8
	.cfi_offset 7, -8
	.cfi_offset 14, -4
	add	r7, sp, #0
	.cfi_def_cfa_register 7
	.loc 1 51 0
	ldr	r3, .L13
	ldr	r2, .L13
	ldr	r2, [r2, #20]
	mov	r1, #128
	lsl	r1, r1, #11
	orr	r2, r1
	str	r2, [r3, #20]
	.loc 1 52 0
	ldr	r3, .L13+4
	ldr	r2, .L13+4
	ldr	r2, [r2]
	mov	r1, #255
	bic	r2, r1
	str	r2, [r3]
	.loc 1 53 0
	ldr	r3, .L13+4
	ldr	r2, .L13+4
	ldr	r2, [r2]
	ldr	r1, .L13+8
	orr	r2, r1
	str	r2, [r3]
	.loc 1 54 0
	mov	sp, r7
	@ sp needed
	pop	{r7, pc}
.L14:
	.align	2
.L13:
	.word	1073876992
	.word	1207960576
	.word	21845
	.cfi_endproc
.LFE3:
	.size	libs_init_leds, .-libs_init_leds
	.align	2
	.global	libs_write_leds
	.code	16
	.thumb_func
	.type	libs_write_leds, %function
libs_write_leds:
.LFB4:
	.loc 1 56 0
	.cfi_startproc
	push	{r7, lr}
	.cfi_def_cfa_offset 8
	.cfi_offset 7, -8
	.cfi_offset 14, -4
	sub	sp, sp, #8
	.cfi_def_cfa_offset 16
	add	r7, sp, #0
	.cfi_def_cfa_register 7
	mov	r2, r0
	add	r3, r7, #7
	strb	r2, [r3]
	.loc 1 58 0
	ldr	r3, .L16
	add	r2, r7, #7
	ldrb	r2, [r2]
	uxth	r2, r2
	strh	r2, [r3, #20]
	.loc 1 59 0
	mov	sp, r7
	add	sp, sp, #8
	@ sp needed
	pop	{r7, pc}
.L17:
	.align	2
.L16:
	.word	1207960576
	.cfi_endproc
.LFE4:
	.size	libs_write_leds, .-libs_write_leds
	.align	2
	.global	libs_init_pot
	.code	16
	.thumb_func
	.type	libs_init_pot, %function
libs_init_pot:
.LFB5:
	.loc 1 63 0
	.cfi_startproc
	push	{r7, lr}
	.cfi_def_cfa_offset 8
	.cfi_offset 7, -8
	.cfi_offset 14, -4
	sub	sp, sp, #8
	.cfi_def_cfa_offset 16
	add	r7, sp, #0
	.cfi_def_cfa_register 7
	.loc 1 65 0
	ldr	r3, .L22
	ldr	r2, .L22
	ldr	r2, [r2, #24]
	mov	r1, #128
	lsl	r1, r1, #2
	orr	r2, r1
	str	r2, [r3, #24]
	.loc 1 66 0
	mov	r3, #144
	lsl	r3, r3, #23
	mov	r2, #144
	lsl	r2, r2, #23
	ldr	r2, [r2]
	mov	r1, #240
	lsl	r1, r1, #6
	orr	r2, r1
	str	r2, [r3]
	.loc 1 69 0
	ldr	r3, .L22+4
	ldr	r2, .L22+4
	ldr	r2, [r2, #8]
	mov	r1, #128
	lsl	r1, r1, #24
	orr	r2, r1
	str	r2, [r3, #8]
	.loc 1 70 0
	ldr	r3, .L22+4
	ldr	r3, [r3, #8]
	mov	r2, r3
	add	r3, r7, #7
	lsr	r2, r2, #31
	strb	r2, [r3]
	.loc 1 71 0
	b	.L19
.L20:
	.loc 1 72 0
	ldr	r3, .L22+4
	ldr	r3, [r3, #8]
	mov	r2, r3
	add	r3, r7, #7
	lsr	r2, r2, #31
	strb	r2, [r3]
.L19:
	.loc 1 71 0 discriminator 1
	add	r3, r7, #7
	ldrb	r3, [r3]
	cmp	r3, #0
	bne	.L20
	.loc 1 75 0
	ldr	r3, .L22+4
	ldr	r2, .L22+4
	ldr	r2, [r2, #8]
	mov	r1, #1
	orr	r2, r1
	str	r2, [r3, #8]
	.loc 1 76 0
	ldr	r3, .L22+4
	ldr	r2, .L22+4
	ldr	r2, [r2, #12]
	mov	r1, #15
	bic	r2, r1
	str	r2, [r3, #12]
	.loc 1 77 0
	ldr	r3, .L22+4
	ldr	r2, .L22+4
	ldr	r2, [r2, #12]
	mov	r1, #16
	orr	r2, r1
	str	r2, [r3, #12]
	.loc 1 78 0
	mov	r8, r8
.L21:
	.loc 1 78 0 is_stmt 0 discriminator 1
	ldr	r3, .L22+4
	ldr	r3, [r3]
	cmp	r3, #0
	beq	.L21
	.loc 1 83 0 is_stmt 1
	mov	sp, r7
	add	sp, sp, #8
	@ sp needed
	pop	{r7, pc}
.L23:
	.align	2
.L22:
	.word	1073876992
	.word	1073816576
	.cfi_endproc
.LFE5:
	.size	libs_init_pot, .-libs_init_pot
	.align	2
	.global	libs_read_pot
	.code	16
	.thumb_func
	.type	libs_read_pot, %function
libs_read_pot:
.LFB6:
	.loc 1 86 0
	.cfi_startproc
	push	{r7, lr}
	.cfi_def_cfa_offset 8
	.cfi_offset 7, -8
	.cfi_offset 14, -4
	sub	sp, sp, #16
	.cfi_def_cfa_offset 24
	add	r7, sp, #0
	.cfi_def_cfa_register 7
	mov	r2, r0
	add	r3, r7, #7
	strb	r2, [r3]
	.loc 1 90 0
	ldr	r3, .L30
	ldr	r2, .L30
	ldr	r2, [r2, #40]
	mov	r1, #96
	bic	r2, r1
	str	r2, [r3, #40]
	.loc 1 92 0
	add	r3, r7, #7
	ldrb	r3, [r3]
	cmp	r3, #0
	beq	.L25
	.loc 1 93 0
	ldr	r3, .L30
	mov	r2, #64
	str	r2, [r3, #40]
	b	.L26
.L25:
	.loc 1 96 0
	ldr	r3, .L30
	mov	r2, #32
	str	r2, [r3, #40]
.L26:
	.loc 1 99 0
	ldr	r3, .L30
	ldr	r2, .L30
	ldr	r2, [r2, #8]
	mov	r1, #4
	orr	r2, r1
	str	r2, [r3, #8]
	.loc 1 101 0
	ldr	r3, .L30
	ldr	r2, [r3]
	mov	r3, #4
	and	r2, r3
	mov	r3, r7
	add	r3, r3, #15
	sub	r1, r2, #1
	sbc	r2, r2, r1
	strb	r2, [r3]
	.loc 1 103 0
	b	.L27
.L28:
	.loc 1 104 0
	ldr	r3, .L30
	ldr	r2, [r3]
	mov	r3, #4
	and	r2, r3
	mov	r3, r7
	add	r3, r3, #15
	sub	r1, r2, #1
	sbc	r2, r2, r1
	strb	r2, [r3]
.L27:
	.loc 1 103 0 discriminator 1
	mov	r3, r7
	add	r3, r3, #15
	ldrb	r3, [r3]
	mov	r2, #1
	eor	r3, r2
	uxtb	r3, r3
	cmp	r3, #0
	bne	.L28
	.loc 1 107 0
	ldr	r3, .L30
	ldr	r3, [r3, #64]
	str	r3, [r7, #8]
	.loc 1 108 0
	ldr	r2, [r7, #8]
	mov	r3, #255
	and	r3, r2
	str	r3, [r7, #8]
	.loc 1 110 0
	ldr	r3, [r7, #8]
	uxtb	r3, r3
	.loc 1 111 0
	mov	r0, r3
	mov	sp, r7
	add	sp, sp, #16
	@ sp needed
	pop	{r7, pc}
.L31:
	.align	2
.L30:
	.word	1073816576
	.cfi_endproc
.LFE6:
	.size	libs_read_pot, .-libs_read_pot
.Letext0:
	.file 2 "/usr/include/newlib/machine/_default_types.h"
	.file 3 "/usr/include/newlib/stdint.h"
	.file 4 "stm32f0xx.h"